---
triple:          'arm64-apple-darwin'
binary-path:     main
relocations:
  - { offset: 0x5C, size: 0x8, addend: 0x0, symName: __ZNSt3__119piecewise_constructE, symObjAddr: 0x3F51, symBinAddr: 0x100007D0D, symSize: 0x0 }
  - { offset: 0x5C03, size: 0x8, addend: 0x0, symName: __ZNSt3__16__math3powB8ne180100IiiTnNS_9enable_ifIXaasr13is_arithmeticIT_EE5valuesr13is_arithmeticIT0_EE5valueEiE4typeELi0EEENS_9__promoteIS3_S4_vE4typeES3_S4_, symObjAddr: 0x2970, symBinAddr: 0x10000654C, symSize: 0x44 }
  - { offset: 0x5C60, size: 0x8, addend: 0x0, symName: __ZNSt3__16__math3powB8ne180100IiEEddd, symObjAddr: 0x2E18, symBinAddr: 0x1000069F4, symSize: 0x2C }
  - { offset: 0x613E, size: 0x8, addend: 0x0, symName: __ZNSt3__124__put_character_sequenceB8ne180100IcNS_11char_traitsIcEEEERNS_13basic_ostreamIT_T0_EES7_PKS4_m, symObjAddr: 0x3554, symBinAddr: 0x100007130, symSize: 0x1E8 }
  - { offset: 0x6FCA, size: 0x8, addend: 0x0, symName: __ZNSt3__1lsB8ne180100IcNS_11char_traitsIcEENS_9allocatorIcEEEERNS_13basic_ostreamIT_T0_EES9_RKNS_12basic_stringIS6_S7_T1_EE, symObjAddr: 0xE8, symBinAddr: 0x100003CC4, symSize: 0x4C }
  - { offset: 0x7022, size: 0x8, addend: 0x0, symName: __ZNSt3__14endlB8ne180100IcNS_11char_traitsIcEEEERNS_13basic_ostreamIT_T0_EES7_, symObjAddr: 0x4BC, symBinAddr: 0x100004098, symSize: 0x58 }
  - { offset: 0x70CC, size: 0x8, addend: 0x0, symName: __ZNSt3__116forward_as_tupleB8ne180100IJiEEENS_5tupleIJDpOT_EEES4_, symObjAddr: 0xE28, symBinAddr: 0x100004A04, symSize: 0x2C }
  - { offset: 0x7105, size: 0x8, addend: 0x0, symName: __ZNSt3__116forward_as_tupleB8ne180100IJEEENS_5tupleIJDpOT_EEES4_, symObjAddr: 0xE54, symBinAddr: 0x100004A30, symSize: 0x4 }
  - { offset: 0x7129, size: 0x8, addend: 0x0, symName: __ZNSt3__17launderB8ne180100IKNS_4pairIKiNS_12basic_stringIcNS_11char_traitsIcEENS_9allocatorIcEEEEEEEEPT_SC_, symObjAddr: 0x14F4, symBinAddr: 0x1000050D0, symSize: 0x24 }
  - { offset: 0x7160, size: 0x8, addend: 0x0, symName: __ZNSt3__19__launderB8ne180100IKNS_4pairIKiNS_12basic_stringIcNS_11char_traitsIcEENS_9allocatorIcEEEEEEEEPT_SC_, symObjAddr: 0x1518, symBinAddr: 0x1000050F4, symSize: 0x14 }
  - { offset: 0x71B5, size: 0x8, addend: 0x0, symName: __ZNSt3__117__libcpp_allocateB8ne180100Emm, symObjAddr: 0x1794, symBinAddr: 0x100005370, symSize: 0x60 }
  - { offset: 0x720F, size: 0x8, addend: 0x0, symName: __ZNSt3__124__is_overaligned_for_newB8ne180100Em, symObjAddr: 0x1808, symBinAddr: 0x1000053E4, symSize: 0x1C }
  - { offset: 0x723D, size: 0x8, addend: 0x0, symName: __ZNSt3__121__libcpp_operator_newB8ne180100IJmSt11align_val_tEEEPvDpT_, symObjAddr: 0x1824, symBinAddr: 0x100005400, symSize: 0x2C }
  - { offset: 0x728A, size: 0x8, addend: 0x0, symName: __ZNSt3__121__libcpp_operator_newB8ne180100IJmEEEPvDpT_, symObjAddr: 0x1850, symBinAddr: 0x10000542C, symSize: 0x24 }
  - { offset: 0x72CE, size: 0x8, addend: 0x0, symName: __ZNSt3__13getB8ne180100ILm0EJOiEEERNS_13tuple_elementIXT_ENS_5tupleIJDpT0_EEEE4typeERS6_, symObjAddr: 0x1AC8, symBinAddr: 0x1000056A4, symSize: 0x24 }
  - { offset: 0x7311, size: 0x8, addend: 0x0, symName: __ZNSt3__127__tree_balance_after_insertB8ne180100IPNS_16__tree_node_baseIPvEEEEvT_S5_, symObjAddr: 0x1D04, symBinAddr: 0x1000058E0, symSize: 0x30C }
  - { offset: 0x738D, size: 0x8, addend: 0x0, symName: __ZNSt3__120__tree_is_left_childB8ne180100IPNS_16__tree_node_baseIPvEEEEbT_, symObjAddr: 0x2050, symBinAddr: 0x100005C2C, symSize: 0x28 }
  - { offset: 0x73C2, size: 0x8, addend: 0x0, symName: __ZNSt3__118__tree_left_rotateB8ne180100IPNS_16__tree_node_baseIPvEEEEvT_, symObjAddr: 0x2078, symBinAddr: 0x100005C54, symSize: 0xD0 }
  - { offset: 0x7401, size: 0x8, addend: 0x0, symName: __ZNSt3__119__tree_right_rotateB8ne180100IPNS_16__tree_node_baseIPvEEEEvT_, symObjAddr: 0x2148, symBinAddr: 0x100005D24, symSize: 0xC4 }
  - { offset: 0x7443, size: 0x8, addend: 0x0, symName: __ZNSt3__112__destroy_atB8ne180100INS_4pairIKiNS_12basic_stringIcNS_11char_traitsIcEENS_9allocatorIcEEEEEETnNS_9enable_ifIXntsr8is_arrayIT_EE5valueEiE4typeELi0EEEvPSB_, symObjAddr: 0x2428, symBinAddr: 0x100006004, symSize: 0x24 }
  - { offset: 0x747A, size: 0x8, addend: 0x0, symName: __ZNSt3__119__libcpp_deallocateB8ne180100EPvmm, symObjAddr: 0x24E8, symBinAddr: 0x1000060C4, symSize: 0x60 }
  - { offset: 0x74DF, size: 0x8, addend: 0x0, symName: __ZNSt3__127__do_deallocate_handle_sizeB8ne180100IJSt11align_val_tEEEvPvmDpT_, symObjAddr: 0x2548, symBinAddr: 0x100006124, symSize: 0x30 }
  - { offset: 0x7532, size: 0x8, addend: 0x0, symName: __ZNSt3__127__do_deallocate_handle_sizeB8ne180100IJEEEvPvmDpT_, symObjAddr: 0x2578, symBinAddr: 0x100006154, symSize: 0x28 }
  - { offset: 0x7570, size: 0x8, addend: 0x0, symName: __ZNSt3__124__libcpp_operator_deleteB8ne180100IJPvSt11align_val_tEEEvDpT_, symObjAddr: 0x25A0, symBinAddr: 0x10000617C, symSize: 0x2C }
  - { offset: 0x75B9, size: 0x8, addend: 0x0, symName: __ZNSt3__124__libcpp_operator_deleteB8ne180100IJPvEEEvDpT_, symObjAddr: 0x25CC, symBinAddr: 0x1000061A8, symSize: 0x24 }
  - { offset: 0x7645, size: 0x8, addend: 0x0, symName: __ZNSt3__17launderB8ne180100INS_4pairIKiNS_12basic_stringIcNS_11char_traitsIcEENS_9allocatorIcEEEEEEEEPT_SB_, symObjAddr: 0x2764, symBinAddr: 0x100006340, symSize: 0x24 }
  - { offset: 0x767C, size: 0x8, addend: 0x0, symName: __ZNSt3__19__launderB8ne180100INS_4pairIKiNS_12basic_stringIcNS_11char_traitsIcEENS_9allocatorIcEEEEEEEEPT_SB_, symObjAddr: 0x2788, symBinAddr: 0x100006364, symSize: 0x14 }
  - { offset: 0x76B3, size: 0x8, addend: 0x0, symName: __ZNSt3__118__constexpr_strlenB8ne180100EPKc, symObjAddr: 0x2BCC, symBinAddr: 0x1000067A8, symSize: 0x24 }
  - { offset: 0x7712, size: 0x8, addend: 0x0, symName: __ZNSt3__112__to_addressB8ne180100IKcEEPT_S3_, symObjAddr: 0x2E6C, symBinAddr: 0x100006A48, symSize: 0x14 }
  - { offset: 0x777A, size: 0x8, addend: 0x0, symName: __ZNSt3__116forward_as_tupleB8ne180100IJRKiEEENS_5tupleIJDpOT_EEES6_, symObjAddr: 0x3030, symBinAddr: 0x100006C0C, symSize: 0x2C }
  - { offset: 0x77B3, size: 0x8, addend: 0x0, symName: __ZNSt3__13getB8ne180100ILm0EJRKiEEERNS_13tuple_elementIXT_ENS_5tupleIJDpT0_EEEE4typeERS7_, symObjAddr: 0x32D0, symBinAddr: 0x100006EAC, symSize: 0x24 }
  - { offset: 0x780B, size: 0x8, addend: 0x0, symName: __ZNSt3__116__pad_and_outputB8ne180100IcNS_11char_traitsIcEEEENS_19ostreambuf_iteratorIT_T0_EES6_PKS4_S8_S8_RNS_8ios_baseES4_, symObjAddr: 0x3758, symBinAddr: 0x100007334, symSize: 0x214 }
  - { offset: 0x78DA, size: 0x8, addend: 0x0, symName: __ZNSt3__112__to_addressB8ne180100IcEEPT_S2_, symObjAddr: 0x3B98, symBinAddr: 0x100007774, symSize: 0x14 }
  - { offset: 0x790F, size: 0x8, addend: 0x0, symName: __ZNSt3__19use_facetB8ne180100INS_5ctypeIcEEEERKT_RKNS_6localeE, symObjAddr: 0x3CEC, symBinAddr: 0x1000078C8, symSize: 0x2C }
  - { offset: 0x8992, size: 0x8, addend: 0x0, symName: __ZSt28__throw_bad_array_new_lengthB8ne180100v, symObjAddr: 0x1760, symBinAddr: 0x10000533C, symSize: 0x34 }
  - { offset: 0x9216, size: 0x8, addend: 0x0, symName: _main, symObjAddr: 0x0, symBinAddr: 0x100003BDC, symSize: 0xBC }
  - { offset: 0x92B7, size: 0x8, addend: 0x0, symName: __ZN8SolutionC1Ev, symObjAddr: 0xBC, symBinAddr: 0x100003C98, symSize: 0x2C }
  - { offset: 0x92E1, size: 0x8, addend: 0x0, symName: __ZN8Solution10intToRomanEi, symObjAddr: 0x134, symBinAddr: 0x100003D10, symSize: 0x35C }
  - { offset: 0x9350, size: 0x8, addend: 0x0, symName: __ZNSt3__113basic_ostreamIcNS_11char_traitsIcEEElsB8ne180100EPFRS3_S4_E, symObjAddr: 0x490, symBinAddr: 0x10000406C, symSize: 0x2C }
  - { offset: 0x9384, size: 0x8, addend: 0x0, symName: __ZN8SolutionD1Ev, symObjAddr: 0x514, symBinAddr: 0x1000040F0, symSize: 0x2C }
  - { offset: 0x93B0, size: 0x8, addend: 0x0, symName: __ZN8SolutionC2Ev, symObjAddr: 0x540, symBinAddr: 0x10000411C, symSize: 0x328 }
  - { offset: 0x93DA, size: 0x8, addend: 0x0, symName: __ZNSt3__13mapIiNS_12basic_stringIcNS_11char_traitsIcEENS_9allocatorIcEEEENS_4lessIiEENS4_INS_4pairIKiS6_EEEEEC1B8ne180100Ev, symObjAddr: 0x868, symBinAddr: 0x100004444, symSize: 0x2C }
  - { offset: 0x9404, size: 0x8, addend: 0x0, symName: __ZNSt3__13mapIiNS_12basic_stringIcNS_11char_traitsIcEENS_9allocatorIcEEEENS_4lessIiEENS4_INS_4pairIKiS6_EEEEEixEOi, symObjAddr: 0x894, symBinAddr: 0x100004470, symSize: 0x80 }
  - { offset: 0x943B, size: 0x8, addend: 0x0, symName: __ZNSt3__112basic_stringIcNS_11char_traitsIcEENS_9allocatorIcEEEaSB8ne180100EPKc, symObjAddr: 0x914, symBinAddr: 0x1000044F0, symSize: 0x2C }
  - { offset: 0x9470, size: 0x8, addend: 0x0, symName: __ZNSt3__13mapIiNS_12basic_stringIcNS_11char_traitsIcEENS_9allocatorIcEEEENS_4lessIiEENS4_INS_4pairIKiS6_EEEEED1B8ne180100Ev, symObjAddr: 0x940, symBinAddr: 0x10000451C, symSize: 0x2C }
  - { offset: 0x949A, size: 0x8, addend: 0x0, symName: __ZNSt3__13mapIiNS_12basic_stringIcNS_11char_traitsIcEENS_9allocatorIcEEEENS_4lessIiEENS4_INS_4pairIKiS6_EEEEEC2B8ne180100Ev, symObjAddr: 0x96C, symBinAddr: 0x100004548, symSize: 0x40 }
  - { offset: 0x94C4, size: 0x8, addend: 0x0, symName: __ZNSt3__119__map_value_compareIiNS_12__value_typeIiNS_12basic_stringIcNS_11char_traitsIcEENS_9allocatorIcEEEEEENS_4lessIiEELb1EEC1B8ne180100ESA_, symObjAddr: 0x9AC, symBinAddr: 0x100004588, symSize: 0x2C }
  - { offset: 0x94FD, size: 0x8, addend: 0x0, symName: __ZNSt3__16__treeINS_12__value_typeIiNS_12basic_stringIcNS_11char_traitsIcEENS_9allocatorIcEEEEEENS_19__map_value_compareIiS8_NS_4lessIiEELb1EEENS5_IS8_EEEC1ERKSC_, symObjAddr: 0x9D8, symBinAddr: 0x1000045B4, symSize: 0x34 }
  - { offset: 0x9538, size: 0x8, addend: 0x0, symName: __ZNSt3__119__map_value_compareIiNS_12__value_typeIiNS_12basic_stringIcNS_11char_traitsIcEENS_9allocatorIcEEEEEENS_4lessIiEELb1EEC2B8ne180100ESA_, symObjAddr: 0xA0C, symBinAddr: 0x1000045E8, symSize: 0x14 }
  - { offset: 0x9571, size: 0x8, addend: 0x0, symName: __ZNSt3__16__treeINS_12__value_typeIiNS_12basic_stringIcNS_11char_traitsIcEENS_9allocatorIcEEEEEENS_19__map_value_compareIiS8_NS_4lessIiEELb1EEENS5_IS8_EEEC2ERKSC_, symObjAddr: 0xA20, symBinAddr: 0x1000045FC, symSize: 0x7C }
  - { offset: 0x95AC, size: 0x8, addend: 0x0, symName: __ZNSt3__117__compressed_pairINS_15__tree_end_nodeIPNS_16__tree_node_baseIPvEEEENS_9allocatorINS_11__tree_nodeINS_12__value_typeIiNS_12basic_stringIcNS_11char_traitsIcEENS7_IcEEEEEES3_EEEEEC1B8ne180100ILb1EvEEv, symObjAddr: 0xA9C, symBinAddr: 0x100004678, symSize: 0x2C }
  - { offset: 0x95E1, size: 0x8, addend: 0x0, symName: __ZNSt3__117__compressed_pairImNS_19__map_value_compareIiNS_12__value_typeIiNS_12basic_stringIcNS_11char_traitsIcEENS_9allocatorIcEEEEEENS_4lessIiEELb1EEEEC1B8ne180100IiRKSC_EEOT_OT0_, symObjAddr: 0xAD8, symBinAddr: 0x1000046B4, symSize: 0x3C }
  - { offset: 0x9639, size: 0x8, addend: 0x0, symName: __ZNSt3__16__treeINS_12__value_typeIiNS_12basic_stringIcNS_11char_traitsIcEENS_9allocatorIcEEEEEENS_19__map_value_compareIiS8_NS_4lessIiEELb1EEENS5_IS8_EEE10__end_nodeB8ne180100Ev, symObjAddr: 0xB14, symBinAddr: 0x1000046F0, symSize: 0x2C }
  - { offset: 0x965F, size: 0x8, addend: 0x0, symName: __ZNSt3__16__treeINS_12__value_typeIiNS_12basic_stringIcNS_11char_traitsIcEENS_9allocatorIcEEEEEENS_19__map_value_compareIiS8_NS_4lessIiEELb1EEENS5_IS8_EEE12__begin_nodeB8ne180100Ev, symObjAddr: 0xB40, symBinAddr: 0x10000471C, symSize: 0x14 }
  - { offset: 0x9685, size: 0x8, addend: 0x0, symName: __ZNSt3__117__compressed_pairINS_15__tree_end_nodeIPNS_16__tree_node_baseIPvEEEENS_9allocatorINS_11__tree_nodeINS_12__value_typeIiNS_12basic_stringIcNS_11char_traitsIcEENS7_IcEEEEEES3_EEEEEC2B8ne180100ILb1EvEEv, symObjAddr: 0xB54, symBinAddr: 0x100004730, symSize: 0x34 }
  - { offset: 0x96BA, size: 0x8, addend: 0x0, symName: __ZNSt3__122__compressed_pair_elemINS_15__tree_end_nodeIPNS_16__tree_node_baseIPvEEEELi0ELb0EEC2B8ne180100ENS_16__value_init_tagE, symObjAddr: 0xB88, symBinAddr: 0x100004764, symSize: 0x2C }
  - { offset: 0x96EF, size: 0x8, addend: 0x0, symName: __ZNSt3__122__compressed_pair_elemINS_9allocatorINS_11__tree_nodeINS_12__value_typeIiNS_12basic_stringIcNS_11char_traitsIcEENS1_IcEEEEEEPvEEEELi1ELb1EEC2B8ne180100ENS_16__value_init_tagE, symObjAddr: 0xBB4, symBinAddr: 0x100004790, symSize: 0x2C }
  - { offset: 0x9724, size: 0x8, addend: 0x0, symName: __ZNSt3__115__tree_end_nodeIPNS_16__tree_node_baseIPvEEEC1B8ne180100Ev, symObjAddr: 0xBE0, symBinAddr: 0x1000047BC, symSize: 0x2C }
  - { offset: 0x974E, size: 0x8, addend: 0x0, symName: __ZNSt3__115__tree_end_nodeIPNS_16__tree_node_baseIPvEEEC2B8ne180100Ev, symObjAddr: 0xC0C, symBinAddr: 0x1000047E8, symSize: 0x18 }
  - { offset: 0x9778, size: 0x8, addend: 0x0, symName: __ZNSt3__19allocatorINS_11__tree_nodeINS_12__value_typeIiNS_12basic_stringIcNS_11char_traitsIcEENS0_IcEEEEEEPvEEEC2B8ne180100Ev, symObjAddr: 0xC24, symBinAddr: 0x100004800, symSize: 0x2C }
  - { offset: 0x97A2, size: 0x8, addend: 0x0, symName: __ZNSt3__116__non_trivial_ifILb1ENS_9allocatorINS_11__tree_nodeINS_12__value_typeIiNS_12basic_stringIcNS_11char_traitsIcEENS1_IcEEEEEEPvEEEEEC2B8ne180100Ev, symObjAddr: 0xC50, symBinAddr: 0x10000482C, symSize: 0x14 }
  - { offset: 0x97CC, size: 0x8, addend: 0x0, symName: __ZNSt3__117__compressed_pairImNS_19__map_value_compareIiNS_12__value_typeIiNS_12basic_stringIcNS_11char_traitsIcEENS_9allocatorIcEEEEEENS_4lessIiEELb1EEEEC2B8ne180100IiRKSC_EEOT_OT0_, symObjAddr: 0xC64, symBinAddr: 0x100004840, symSize: 0x44 }
  - { offset: 0x9824, size: 0x8, addend: 0x0, symName: __ZNSt3__122__compressed_pair_elemImLi0ELb0EEC2B8ne180100IivEEOT_, symObjAddr: 0xCA8, symBinAddr: 0x100004884, symSize: 0x24 }
  - { offset: 0x9866, size: 0x8, addend: 0x0, symName: __ZNSt3__122__compressed_pair_elemINS_19__map_value_compareIiNS_12__value_typeIiNS_12basic_stringIcNS_11char_traitsIcEENS_9allocatorIcEEEEEENS_4lessIiEELb1EEELi1ELb1EEC2B8ne180100IRKSC_vEEOT_, symObjAddr: 0xCCC, symBinAddr: 0x1000048A8, symSize: 0x18 }
  - { offset: 0x98A8, size: 0x8, addend: 0x0, symName: __ZNSt3__114pointer_traitsIPNS_15__tree_end_nodeIPNS_16__tree_node_baseIPvEEEEE10pointer_toB8ne180100ERS6_, symObjAddr: 0xCE4, symBinAddr: 0x1000048C0, symSize: 0x14 }
  - { offset: 0x98CB, size: 0x8, addend: 0x0, symName: __ZNSt3__117__compressed_pairINS_15__tree_end_nodeIPNS_16__tree_node_baseIPvEEEENS_9allocatorINS_11__tree_nodeINS_12__value_typeIiNS_12basic_stringIcNS_11char_traitsIcEENS7_IcEEEEEES3_EEEEE5firstB8ne180100Ev, symObjAddr: 0xCF8, symBinAddr: 0x1000048D4, symSize: 0x24 }
  - { offset: 0x98F1, size: 0x8, addend: 0x0, symName: __ZNSt3__122__compressed_pair_elemINS_15__tree_end_nodeIPNS_16__tree_node_baseIPvEEEELi0ELb0EE5__getB8ne180100Ev, symObjAddr: 0xD1C, symBinAddr: 0x1000048F8, symSize: 0x14 }
  - { offset: 0x992B, size: 0x8, addend: 0x0, symName: __ZNSt3__16__treeINS_12__value_typeIiNS_12basic_stringIcNS_11char_traitsIcEENS_9allocatorIcEEEEEENS_19__map_value_compareIiS8_NS_4lessIiEELb1EEENS5_IS8_EEE25__emplace_unique_key_argsIiJRKNS_21piecewise_construct_tENS_5tupleIJOiEEENSJ_IJEEEEEENS_4pairINS_15__tree_iteratorIS8_PNS_11__tree_nodeIS8_PvEElEEbEERKT_DpOT0_, symObjAddr: 0xD30, symBinAddr: 0x10000490C, symSize: 0xF8 }
  - { offset: 0x99FF, size: 0x8, addend: 0x0, symName: __ZNKSt3__115__tree_iteratorINS_12__value_typeIiNS_12basic_stringIcNS_11char_traitsIcEENS_9allocatorIcEEEEEEPNS_11__tree_nodeIS8_PvEElEptB8ne180100Ev, symObjAddr: 0xE58, symBinAddr: 0x100004A34, symSize: 0x2C }
  - { offset: 0x9A25, size: 0x8, addend: 0x0, symName: __ZNSt3__112__value_typeIiNS_12basic_stringIcNS_11char_traitsIcEENS_9allocatorIcEEEEE11__get_valueB8ne180100Ev, symObjAddr: 0xE84, symBinAddr: 0x100004A60, symSize: 0x24 }
  - { offset: 0x9A4B, size: 0x8, addend: 0x0, symName: __ZNSt3__16__treeINS_12__value_typeIiNS_12basic_stringIcNS_11char_traitsIcEENS_9allocatorIcEEEEEENS_19__map_value_compareIiS8_NS_4lessIiEELb1EEENS5_IS8_EEE12__find_equalIiEERPNS_16__tree_node_baseIPvEERPNS_15__tree_end_nodeISJ_EERKT_, symObjAddr: 0xEA8, symBinAddr: 0x100004A84, symSize: 0x16C }
  - { offset: 0x9AB6, size: 0x8, addend: 0x0, symName: __ZNSt3__16__treeINS_12__value_typeIiNS_12basic_stringIcNS_11char_traitsIcEENS_9allocatorIcEEEEEENS_19__map_value_compareIiS8_NS_4lessIiEELb1EEENS5_IS8_EEE16__construct_nodeIJRKNS_21piecewise_construct_tENS_5tupleIJOiEEENSJ_IJEEEEEENS_10unique_ptrINS_11__tree_nodeIS8_PvEENS_22__tree_node_destructorINS5_ISQ_EEEEEEDpOT_, symObjAddr: 0x1014, symBinAddr: 0x100004BF0, symSize: 0x120 }
  - { offset: 0x9B3D, size: 0x8, addend: 0x0, symName: __ZNSt3__16__treeINS_12__value_typeIiNS_12basic_stringIcNS_11char_traitsIcEENS_9allocatorIcEEEEEENS_19__map_value_compareIiS8_NS_4lessIiEELb1EEENS5_IS8_EEE16__insert_node_atEPNS_15__tree_end_nodeIPNS_16__tree_node_baseIPvEEEERSJ_SJ_, symObjAddr: 0x1134, symBinAddr: 0x100004D10, symSize: 0xC4 }
  - { offset: 0x9B92, size: 0x8, addend: 0x0, symName: __ZNKSt3__110unique_ptrINS_11__tree_nodeINS_12__value_typeIiNS_12basic_stringIcNS_11char_traitsIcEENS_9allocatorIcEEEEEEPvEENS_22__tree_node_destructorINS6_ISB_EEEEE3getB8ne180100Ev, symObjAddr: 0x11F8, symBinAddr: 0x100004DD4, symSize: 0x28 }
  - { offset: 0x9BB8, size: 0x8, addend: 0x0, symName: __ZNSt3__110unique_ptrINS_11__tree_nodeINS_12__value_typeIiNS_12basic_stringIcNS_11char_traitsIcEENS_9allocatorIcEEEEEEPvEENS_22__tree_node_destructorINS6_ISB_EEEEE7releaseB8ne180100Ev, symObjAddr: 0x1220, symBinAddr: 0x100004DFC, symSize: 0x44 }
  - { offset: 0x9BED, size: 0x8, addend: 0x0, symName: __ZNSt3__110unique_ptrINS_11__tree_nodeINS_12__value_typeIiNS_12basic_stringIcNS_11char_traitsIcEENS_9allocatorIcEEEEEEPvEENS_22__tree_node_destructorINS6_ISB_EEEEED1B8ne180100Ev, symObjAddr: 0x1264, symBinAddr: 0x100004E40, symSize: 0x2C }
  - { offset: 0x9C17, size: 0x8, addend: 0x0, symName: __ZNSt3__115__tree_iteratorINS_12__value_typeIiNS_12basic_stringIcNS_11char_traitsIcEENS_9allocatorIcEEEEEEPNS_11__tree_nodeIS8_PvEElEC1B8ne180100ESC_, symObjAddr: 0x1290, symBinAddr: 0x100004E6C, symSize: 0x34 }
  - { offset: 0x9C5A, size: 0x8, addend: 0x0, symName: __ZNSt3__14pairINS_15__tree_iteratorINS_12__value_typeIiNS_12basic_stringIcNS_11char_traitsIcEENS_9allocatorIcEEEEEEPNS_11__tree_nodeIS9_PvEElEEbEC1B8ne180100ISE_RbTnNS_9enable_ifIXclsr10_CheckArgsE17__enable_implicitIT_T0_EEEiE4typeELi0EEEOSJ_OSK_, symObjAddr: 0x12C4, symBinAddr: 0x100004EA0, symSize: 0x3C }
  - { offset: 0x9CB8, size: 0x8, addend: 0x0, symName: __ZNKSt3__16__treeINS_12__value_typeIiNS_12basic_stringIcNS_11char_traitsIcEENS_9allocatorIcEEEEEENS_19__map_value_compareIiS8_NS_4lessIiEELb1EEENS5_IS8_EEE6__rootB8ne180100Ev, symObjAddr: 0x1300, symBinAddr: 0x100004EDC, symSize: 0x28 }
  - { offset: 0x9CDE, size: 0x8, addend: 0x0, symName: __ZNKSt3__16__treeINS_12__value_typeIiNS_12basic_stringIcNS_11char_traitsIcEENS_9allocatorIcEEEEEENS_19__map_value_compareIiS8_NS_4lessIiEELb1EEENS5_IS8_EEE10__root_ptrB8ne180100Ev, symObjAddr: 0x1328, symBinAddr: 0x100004F04, symSize: 0x24 }
  - { offset: 0x9D04, size: 0x8, addend: 0x0, symName: __ZNSt3__16__treeINS_12__value_typeIiNS_12basic_stringIcNS_11char_traitsIcEENS_9allocatorIcEEEEEENS_19__map_value_compareIiS8_NS_4lessIiEELb1EEENS5_IS8_EEE10value_compB8ne180100Ev, symObjAddr: 0x134C, symBinAddr: 0x100004F28, symSize: 0x28 }
  - { offset: 0x9D2A, size: 0x8, addend: 0x0, symName: __ZNKSt3__119__map_value_compareIiNS_12__value_typeIiNS_12basic_stringIcNS_11char_traitsIcEENS_9allocatorIcEEEEEENS_4lessIiEELb1EEclB8ne180100ERKiRKS8_, symObjAddr: 0x1374, symBinAddr: 0x100004F50, symSize: 0x4C }
  - { offset: 0x9D6E, size: 0x8, addend: 0x0, symName: __ZNKSt3__119__map_value_compareIiNS_12__value_typeIiNS_12basic_stringIcNS_11char_traitsIcEENS_9allocatorIcEEEEEENS_4lessIiEELb1EEclB8ne180100ERKS8_RKi, symObjAddr: 0x13C0, symBinAddr: 0x100004F9C, symSize: 0x44 }
  - { offset: 0x9DB2, size: 0x8, addend: 0x0, symName: __ZNKSt3__16__treeINS_12__value_typeIiNS_12basic_stringIcNS_11char_traitsIcEENS_9allocatorIcEEEEEENS_19__map_value_compareIiS8_NS_4lessIiEELb1EEENS5_IS8_EEE10__end_nodeB8ne180100Ev, symObjAddr: 0x1404, symBinAddr: 0x100004FE0, symSize: 0x2C }
  - { offset: 0x9DD8, size: 0x8, addend: 0x0, symName: __ZNKSt3__117__compressed_pairINS_15__tree_end_nodeIPNS_16__tree_node_baseIPvEEEENS_9allocatorINS_11__tree_nodeINS_12__value_typeIiNS_12basic_stringIcNS_11char_traitsIcEENS7_IcEEEEEES3_EEEEE5firstB8ne180100Ev, symObjAddr: 0x1430, symBinAddr: 0x10000500C, symSize: 0x24 }
  - { offset: 0x9DFE, size: 0x8, addend: 0x0, symName: __ZNKSt3__122__compressed_pair_elemINS_15__tree_end_nodeIPNS_16__tree_node_baseIPvEEEELi0ELb0EE5__getB8ne180100Ev, symObjAddr: 0x1454, symBinAddr: 0x100005030, symSize: 0x14 }
  - { offset: 0x9E24, size: 0x8, addend: 0x0, symName: __ZNSt3__117__compressed_pairImNS_19__map_value_compareIiNS_12__value_typeIiNS_12basic_stringIcNS_11char_traitsIcEENS_9allocatorIcEEEEEENS_4lessIiEELb1EEEE6secondB8ne180100Ev, symObjAddr: 0x1468, symBinAddr: 0x100005044, symSize: 0x24 }
  - { offset: 0x9E4A, size: 0x8, addend: 0x0, symName: __ZNSt3__122__compressed_pair_elemINS_19__map_value_compareIiNS_12__value_typeIiNS_12basic_stringIcNS_11char_traitsIcEENS_9allocatorIcEEEEEENS_4lessIiEELb1EEELi1ELb1EE5__getB8ne180100Ev, symObjAddr: 0x148C, symBinAddr: 0x100005068, symSize: 0x14 }
  - { offset: 0x9E70, size: 0x8, addend: 0x0, symName: __ZNKSt3__14lessIiEclB8ne180100ERKiS3_, symObjAddr: 0x14A0, symBinAddr: 0x10000507C, symSize: 0x30 }
  - { offset: 0x9EB4, size: 0x8, addend: 0x0, symName: __ZNKSt3__112__value_typeIiNS_12basic_stringIcNS_11char_traitsIcEENS_9allocatorIcEEEEE11__get_valueB8ne180100Ev, symObjAddr: 0x14D0, symBinAddr: 0x1000050AC, symSize: 0x24 }
  - { offset: 0x9EDA, size: 0x8, addend: 0x0, symName: __ZNSt3__16__treeINS_12__value_typeIiNS_12basic_stringIcNS_11char_traitsIcEENS_9allocatorIcEEEEEENS_19__map_value_compareIiS8_NS_4lessIiEELb1EEENS5_IS8_EEE12__node_allocB8ne180100Ev, symObjAddr: 0x152C, symBinAddr: 0x100005108, symSize: 0x28 }
  - { offset: 0x9F00, size: 0x8, addend: 0x0, symName: __ZNSt3__116allocator_traitsINS_9allocatorINS_11__tree_nodeINS_12__value_typeIiNS_12basic_stringIcNS_11char_traitsIcEENS1_IcEEEEEEPvEEEEE8allocateB8ne180100ERSC_m, symObjAddr: 0x1554, symBinAddr: 0x100005130, symSize: 0x2C }
  - { offset: 0x9F33, size: 0x8, addend: 0x0, symName: __ZNSt3__122__tree_node_destructorINS_9allocatorINS_11__tree_nodeINS_12__value_typeIiNS_12basic_stringIcNS_11char_traitsIcEENS1_IcEEEEEEPvEEEEEC1B8ne180100ERSC_b, symObjAddr: 0x1580, symBinAddr: 0x10000515C, symSize: 0x40 }
  - { offset: 0x9F80, size: 0x8, addend: 0x0, symName: __ZNSt3__110unique_ptrINS_11__tree_nodeINS_12__value_typeIiNS_12basic_stringIcNS_11char_traitsIcEENS_9allocatorIcEEEEEEPvEENS_22__tree_node_destructorINS6_ISB_EEEEEC1B8ne180100ILb1EvEEPSB_NS_16__dependent_typeINS_27__unique_ptr_deleter_sfinaeISE_EEXT_EE20__good_rval_ref_typeE, symObjAddr: 0x15C0, symBinAddr: 0x10000519C, symSize: 0x3C }
  - { offset: 0x9FD1, size: 0x8, addend: 0x0, symName: __ZNSt3__116allocator_traitsINS_9allocatorINS_11__tree_nodeINS_12__value_typeIiNS_12basic_stringIcNS_11char_traitsIcEENS1_IcEEEEEEPvEEEEE9constructB8ne180100INS_4pairIKiS8_EEJRKNS_21piecewise_construct_tENS_5tupleIJOiEEENSL_IJEEEEvEEvRSC_PT_DpOT0_, symObjAddr: 0x15FC, symBinAddr: 0x1000051D8, symSize: 0x44 }
  - { offset: 0xA050, size: 0x8, addend: 0x0, symName: __ZNSt3__122__tree_key_value_typesINS_12__value_typeIiNS_12basic_stringIcNS_11char_traitsIcEENS_9allocatorIcEEEEEEE9__get_ptrB8ne180100ERS8_, symObjAddr: 0x1640, symBinAddr: 0x10000521C, symSize: 0x24 }
  - { offset: 0xA074, size: 0x8, addend: 0x0, symName: __ZNKSt3__110unique_ptrINS_11__tree_nodeINS_12__value_typeIiNS_12basic_stringIcNS_11char_traitsIcEENS_9allocatorIcEEEEEEPvEENS_22__tree_node_destructorINS6_ISB_EEEEEptB8ne180100Ev, symObjAddr: 0x1664, symBinAddr: 0x100005240, symSize: 0x28 }
  - { offset: 0xA09A, size: 0x8, addend: 0x0, symName: __ZNSt3__110unique_ptrINS_11__tree_nodeINS_12__value_typeIiNS_12basic_stringIcNS_11char_traitsIcEENS_9allocatorIcEEEEEEPvEENS_22__tree_node_destructorINS6_ISB_EEEEE11get_deleterB8ne180100Ev, symObjAddr: 0x168C, symBinAddr: 0x100005268, symSize: 0x24 }
  - { offset: 0xA0C0, size: 0x8, addend: 0x0, symName: __ZNSt3__117__compressed_pairINS_15__tree_end_nodeIPNS_16__tree_node_baseIPvEEEENS_9allocatorINS_11__tree_nodeINS_12__value_typeIiNS_12basic_stringIcNS_11char_traitsIcEENS7_IcEEEEEES3_EEEEE6secondB8ne180100Ev, symObjAddr: 0x16B0, symBinAddr: 0x10000528C, symSize: 0x24 }
  - { offset: 0xA0E6, size: 0x8, addend: 0x0, symName: __ZNSt3__122__compressed_pair_elemINS_9allocatorINS_11__tree_nodeINS_12__value_typeIiNS_12basic_stringIcNS_11char_traitsIcEENS1_IcEEEEEEPvEEEELi1ELb1EE5__getB8ne180100Ev, symObjAddr: 0x16D4, symBinAddr: 0x1000052B0, symSize: 0x14 }
  - { offset: 0xA10C, size: 0x8, addend: 0x0, symName: __ZNSt3__19allocatorINS_11__tree_nodeINS_12__value_typeIiNS_12basic_stringIcNS_11char_traitsIcEENS0_IcEEEEEEPvEEE8allocateB8ne180100Em, symObjAddr: 0x16E8, symBinAddr: 0x1000052C4, symSize: 0x54 }
  - { offset: 0xA14A, size: 0x8, addend: 0x0, symName: __ZNSt3__116allocator_traitsINS_9allocatorINS_11__tree_nodeINS_12__value_typeIiNS_12basic_stringIcNS_11char_traitsIcEENS1_IcEEEEEEPvEEEEE8max_sizeB8ne180100ISC_vEEmRKSC_, symObjAddr: 0x173C, symBinAddr: 0x100005318, symSize: 0x24 }
  - { offset: 0xA178, size: 0x8, addend: 0x0, symName: __ZNKSt3__19allocatorINS_11__tree_nodeINS_12__value_typeIiNS_12basic_stringIcNS_11char_traitsIcEENS0_IcEEEEEEPvEEE8max_sizeB8ne180100Ev, symObjAddr: 0x17F4, symBinAddr: 0x1000053D0, symSize: 0x14 }
  - { offset: 0xA19E, size: 0x8, addend: 0x0, symName: __ZNSt3__122__tree_node_destructorINS_9allocatorINS_11__tree_nodeINS_12__value_typeIiNS_12basic_stringIcNS_11char_traitsIcEENS1_IcEEEEEEPvEEEEEC2B8ne180100ERSC_b, symObjAddr: 0x1874, symBinAddr: 0x100005450, symSize: 0x30 }
  - { offset: 0xA1E6, size: 0x8, addend: 0x0, symName: __ZNSt3__110unique_ptrINS_11__tree_nodeINS_12__value_typeIiNS_12basic_stringIcNS_11char_traitsIcEENS_9allocatorIcEEEEEEPvEENS_22__tree_node_destructorINS6_ISB_EEEEEC2B8ne180100ILb1EvEEPSB_NS_16__dependent_typeINS_27__unique_ptr_deleter_sfinaeISE_EEXT_EE20__good_rval_ref_typeE, symObjAddr: 0x18A4, symBinAddr: 0x100005480, symSize: 0x48 }
  - { offset: 0xA237, size: 0x8, addend: 0x0, symName: __ZNSt3__117__compressed_pairIPNS_11__tree_nodeINS_12__value_typeIiNS_12basic_stringIcNS_11char_traitsIcEENS_9allocatorIcEEEEEEPvEENS_22__tree_node_destructorINS6_ISB_EEEEEC1B8ne180100IRSC_SF_EEOT_OT0_, symObjAddr: 0x18EC, symBinAddr: 0x1000054C8, symSize: 0x3C }
  - { offset: 0xA28F, size: 0x8, addend: 0x0, symName: __ZNSt3__117__compressed_pairIPNS_11__tree_nodeINS_12__value_typeIiNS_12basic_stringIcNS_11char_traitsIcEENS_9allocatorIcEEEEEEPvEENS_22__tree_node_destructorINS6_ISB_EEEEEC2B8ne180100IRSC_SF_EEOT_OT0_, symObjAddr: 0x1928, symBinAddr: 0x100005504, symSize: 0x48 }
  - { offset: 0xA2E7, size: 0x8, addend: 0x0, symName: __ZNSt3__122__compressed_pair_elemIPNS_11__tree_nodeINS_12__value_typeIiNS_12basic_stringIcNS_11char_traitsIcEENS_9allocatorIcEEEEEEPvEELi0ELb0EEC2B8ne180100IRSC_vEEOT_, symObjAddr: 0x1970, symBinAddr: 0x10000554C, symSize: 0x24 }
  - { offset: 0xA329, size: 0x8, addend: 0x0, symName: __ZNSt3__122__compressed_pair_elemINS_22__tree_node_destructorINS_9allocatorINS_11__tree_nodeINS_12__value_typeIiNS_12basic_stringIcNS_11char_traitsIcEENS2_IcEEEEEEPvEEEEEELi1ELb0EEC2B8ne180100ISE_vEEOT_, symObjAddr: 0x1994, symBinAddr: 0x100005570, symSize: 0x24 }
  - { offset: 0xA36B, size: 0x8, addend: 0x0, symName: __ZNSt3__19allocatorINS_11__tree_nodeINS_12__value_typeIiNS_12basic_stringIcNS_11char_traitsIcEENS0_IcEEEEEEPvEEE9constructB8ne180100INS_4pairIKiS7_EEJRKNS_21piecewise_construct_tENS_5tupleIJOiEEENSJ_IJEEEEEEvPT_DpOT0_, symObjAddr: 0x19B8, symBinAddr: 0x100005594, symSize: 0x44 }
  - { offset: 0xA3E7, size: 0x8, addend: 0x0, symName: __ZNSt3__14pairIKiNS_12basic_stringIcNS_11char_traitsIcEENS_9allocatorIcEEEEEC1B8ne180100IJOiEJEEENS_21piecewise_construct_tENS_5tupleIJDpT_EEENSC_IJDpT0_EEE, symObjAddr: 0x19FC, symBinAddr: 0x1000055D8, symSize: 0x44 }
  - { offset: 0xA44E, size: 0x8, addend: 0x0, symName: __ZNSt3__14pairIKiNS_12basic_stringIcNS_11char_traitsIcEENS_9allocatorIcEEEEEC1B8ne180100IJOiEJEJLm0EETpTnmJEEENS_21piecewise_construct_tERNS_5tupleIJDpT_EEERNSC_IJDpT0_EEENS_15__tuple_indicesIJXspT1_EEEENSL_IJXspT2_EEEE, symObjAddr: 0x1A40, symBinAddr: 0x10000561C, symSize: 0x3C }
  - { offset: 0xA4DB, size: 0x8, addend: 0x0, symName: __ZNSt3__14pairIKiNS_12basic_stringIcNS_11char_traitsIcEENS_9allocatorIcEEEEEC2B8ne180100IJOiEJEJLm0EETpTnmJEEENS_21piecewise_construct_tERNS_5tupleIJDpT_EEERNSC_IJDpT0_EEENS_15__tuple_indicesIJXspT1_EEEENSL_IJXspT2_EEEE, symObjAddr: 0x1A7C, symBinAddr: 0x100005658, symSize: 0x4C }
  - { offset: 0xA568, size: 0x8, addend: 0x0, symName: __ZNSt3__112basic_stringIcNS_11char_traitsIcEENS_9allocatorIcEEEC1B8ne180100Ev, symObjAddr: 0x1AEC, symBinAddr: 0x1000056C8, symSize: 0x2C }
  - { offset: 0xA592, size: 0x8, addend: 0x0, symName: __ZNSt3__112__tuple_leafILm0EOiLb0EE3getB8ne180100Ev, symObjAddr: 0x1B18, symBinAddr: 0x1000056F4, symSize: 0x18 }
  - { offset: 0xA5B8, size: 0x8, addend: 0x0, symName: __ZNSt3__112basic_stringIcNS_11char_traitsIcEENS_9allocatorIcEEEC2B8ne180100Ev, symObjAddr: 0x1B30, symBinAddr: 0x10000570C, symSize: 0x48 }
  - { offset: 0xA5EC, size: 0x8, addend: 0x0, symName: __ZNSt3__117__compressed_pairINS_12basic_stringIcNS_11char_traitsIcEENS_9allocatorIcEEE5__repES5_EC1B8ne180100INS_16__value_init_tagENS_18__default_init_tagEEEOT_OT0_, symObjAddr: 0x1B78, symBinAddr: 0x100005754, symSize: 0x3C }
  - { offset: 0xA644, size: 0x8, addend: 0x0, symName: __ZNKSt3__112basic_stringIcNS_11char_traitsIcEENS_9allocatorIcEEE14__annotate_newB8ne180100Em, symObjAddr: 0x1BB4, symBinAddr: 0x100005790, symSize: 0x14 }
  - { offset: 0xA679, size: 0x8, addend: 0x0, symName: __ZNSt3__117__compressed_pairINS_12basic_stringIcNS_11char_traitsIcEENS_9allocatorIcEEE5__repES5_EC2B8ne180100INS_16__value_init_tagENS_18__default_init_tagEEEOT_OT0_, symObjAddr: 0x1BC8, symBinAddr: 0x1000057A4, symSize: 0x3C }
  - { offset: 0xA6D1, size: 0x8, addend: 0x0, symName: __ZNSt3__122__compressed_pair_elemINS_12basic_stringIcNS_11char_traitsIcEENS_9allocatorIcEEE5__repELi0ELb0EEC2B8ne180100ENS_16__value_init_tagE, symObjAddr: 0x1C04, symBinAddr: 0x1000057E0, symSize: 0x20 }
  - { offset: 0xA706, size: 0x8, addend: 0x0, symName: __ZNSt3__122__compressed_pair_elemINS_9allocatorIcEELi1ELb1EEC2B8ne180100ENS_18__default_init_tagE, symObjAddr: 0x1C24, symBinAddr: 0x100005800, symSize: 0x2C }
  - { offset: 0xA73B, size: 0x8, addend: 0x0, symName: __ZNSt3__19allocatorIcEC2B8ne180100Ev, symObjAddr: 0x1C50, symBinAddr: 0x10000582C, symSize: 0x2C }
  - { offset: 0xA765, size: 0x8, addend: 0x0, symName: __ZNSt3__116__non_trivial_ifILb1ENS_9allocatorIcEEEC2B8ne180100Ev, symObjAddr: 0x1C7C, symBinAddr: 0x100005858, symSize: 0x14 }
  - { offset: 0xA78F, size: 0x8, addend: 0x0, symName: __ZNKSt3__117__compressed_pairIPNS_11__tree_nodeINS_12__value_typeIiNS_12basic_stringIcNS_11char_traitsIcEENS_9allocatorIcEEEEEEPvEENS_22__tree_node_destructorINS6_ISB_EEEEE5firstB8ne180100Ev, symObjAddr: 0x1C90, symBinAddr: 0x10000586C, symSize: 0x24 }
  - { offset: 0xA7B5, size: 0x8, addend: 0x0, symName: __ZNKSt3__122__compressed_pair_elemIPNS_11__tree_nodeINS_12__value_typeIiNS_12basic_stringIcNS_11char_traitsIcEENS_9allocatorIcEEEEEEPvEELi0ELb0EE5__getB8ne180100Ev, symObjAddr: 0x1CB4, symBinAddr: 0x100005890, symSize: 0x14 }
  - { offset: 0xA7DB, size: 0x8, addend: 0x0, symName: __ZNSt3__117__compressed_pairIPNS_11__tree_nodeINS_12__value_typeIiNS_12basic_stringIcNS_11char_traitsIcEENS_9allocatorIcEEEEEEPvEENS_22__tree_node_destructorINS6_ISB_EEEEE6secondB8ne180100Ev, symObjAddr: 0x1CC8, symBinAddr: 0x1000058A4, symSize: 0x28 }
  - { offset: 0xA801, size: 0x8, addend: 0x0, symName: __ZNSt3__122__compressed_pair_elemINS_22__tree_node_destructorINS_9allocatorINS_11__tree_nodeINS_12__value_typeIiNS_12basic_stringIcNS_11char_traitsIcEENS2_IcEEEEEEPvEEEEEELi1ELb0EE5__getB8ne180100Ev, symObjAddr: 0x1CF0, symBinAddr: 0x1000058CC, symSize: 0x14 }
  - { offset: 0xA827, size: 0x8, addend: 0x0, symName: __ZNSt3__16__treeINS_12__value_typeIiNS_12basic_stringIcNS_11char_traitsIcEENS_9allocatorIcEEEEEENS_19__map_value_compareIiS8_NS_4lessIiEELb1EEENS5_IS8_EEE4sizeB8ne180100Ev, symObjAddr: 0x2010, symBinAddr: 0x100005BEC, symSize: 0x28 }
  - { offset: 0xA84D, size: 0x8, addend: 0x0, symName: __ZNKSt3__116__tree_node_baseIPvE15__parent_unsafeB8ne180100Ev, symObjAddr: 0x2038, symBinAddr: 0x100005C14, symSize: 0x18 }
  - { offset: 0xA873, size: 0x8, addend: 0x0, symName: __ZNSt3__116__tree_node_baseIPvE12__set_parentB8ne180100EPS2_, symObjAddr: 0x220C, symBinAddr: 0x100005DE8, symSize: 0x20 }
  - { offset: 0xA8A8, size: 0x8, addend: 0x0, symName: __ZNSt3__117__compressed_pairImNS_19__map_value_compareIiNS_12__value_typeIiNS_12basic_stringIcNS_11char_traitsIcEENS_9allocatorIcEEEEEENS_4lessIiEELb1EEEE5firstB8ne180100Ev, symObjAddr: 0x222C, symBinAddr: 0x100005E08, symSize: 0x24 }
  - { offset: 0xA8CE, size: 0x8, addend: 0x0, symName: __ZNSt3__122__compressed_pair_elemImLi0ELb0EE5__getB8ne180100Ev, symObjAddr: 0x2250, symBinAddr: 0x100005E2C, symSize: 0x14 }
  - { offset: 0xA8F4, size: 0x8, addend: 0x0, symName: __ZNSt3__117__compressed_pairIPNS_11__tree_nodeINS_12__value_typeIiNS_12basic_stringIcNS_11char_traitsIcEENS_9allocatorIcEEEEEEPvEENS_22__tree_node_destructorINS6_ISB_EEEEE5firstB8ne180100Ev, symObjAddr: 0x2264, symBinAddr: 0x100005E40, symSize: 0x24 }
  - { offset: 0xA91A, size: 0x8, addend: 0x0, symName: __ZNSt3__122__compressed_pair_elemIPNS_11__tree_nodeINS_12__value_typeIiNS_12basic_stringIcNS_11char_traitsIcEENS_9allocatorIcEEEEEEPvEELi0ELb0EE5__getB8ne180100Ev, symObjAddr: 0x2288, symBinAddr: 0x100005E64, symSize: 0x14 }
  - { offset: 0xA940, size: 0x8, addend: 0x0, symName: __ZNSt3__110unique_ptrINS_11__tree_nodeINS_12__value_typeIiNS_12basic_stringIcNS_11char_traitsIcEENS_9allocatorIcEEEEEEPvEENS_22__tree_node_destructorINS6_ISB_EEEEED2B8ne180100Ev, symObjAddr: 0x229C, symBinAddr: 0x100005E78, symSize: 0x30 }
  - { offset: 0xA96A, size: 0x8, addend: 0x0, symName: __ZNSt3__110unique_ptrINS_11__tree_nodeINS_12__value_typeIiNS_12basic_stringIcNS_11char_traitsIcEENS_9allocatorIcEEEEEEPvEENS_22__tree_node_destructorINS6_ISB_EEEEE5resetB8ne180100EPSB_, symObjAddr: 0x22CC, symBinAddr: 0x100005EA8, symSize: 0x70 }
  - { offset: 0xA9AE, size: 0x8, addend: 0x0, symName: __ZNSt3__122__tree_node_destructorINS_9allocatorINS_11__tree_nodeINS_12__value_typeIiNS_12basic_stringIcNS_11char_traitsIcEENS1_IcEEEEEEPvEEEEEclB8ne180100EPSB_, symObjAddr: 0x233C, symBinAddr: 0x100005F18, symSize: 0x90 }
  - { offset: 0xA9E3, size: 0x8, addend: 0x0, symName: __ZNSt3__116allocator_traitsINS_9allocatorINS_11__tree_nodeINS_12__value_typeIiNS_12basic_stringIcNS_11char_traitsIcEENS1_IcEEEEEEPvEEEEE7destroyB8ne180100INS_4pairIKiS8_EEvvEEvRSC_PT_, symObjAddr: 0x23CC, symBinAddr: 0x100005FA8, symSize: 0x28 }
  - { offset: 0xAA1E, size: 0x8, addend: 0x0, symName: __ZNSt3__116allocator_traitsINS_9allocatorINS_11__tree_nodeINS_12__value_typeIiNS_12basic_stringIcNS_11char_traitsIcEENS1_IcEEEEEEPvEEEEE10deallocateB8ne180100ERSC_PSB_m, symObjAddr: 0x23F4, symBinAddr: 0x100005FD0, symSize: 0x34 }
  - { offset: 0xAA60, size: 0x8, addend: 0x0, symName: __ZNSt3__14pairIKiNS_12basic_stringIcNS_11char_traitsIcEENS_9allocatorIcEEEEED1Ev, symObjAddr: 0x244C, symBinAddr: 0x100006028, symSize: 0x2C }
  - { offset: 0xAA8C, size: 0x8, addend: 0x0, symName: __ZNSt3__14pairIKiNS_12basic_stringIcNS_11char_traitsIcEENS_9allocatorIcEEEEED2Ev, symObjAddr: 0x2478, symBinAddr: 0x100006054, symSize: 0x30 }
  - { offset: 0xAAB8, size: 0x8, addend: 0x0, symName: __ZNSt3__19allocatorINS_11__tree_nodeINS_12__value_typeIiNS_12basic_stringIcNS_11char_traitsIcEENS0_IcEEEEEEPvEEE10deallocateB8ne180100EPSA_m, symObjAddr: 0x24A8, symBinAddr: 0x100006084, symSize: 0x40 }
  - { offset: 0xAAFA, size: 0x8, addend: 0x0, symName: __ZNSt3__115__tree_iteratorINS_12__value_typeIiNS_12basic_stringIcNS_11char_traitsIcEENS_9allocatorIcEEEEEEPNS_11__tree_nodeIS8_PvEElEC2B8ne180100ESC_, symObjAddr: 0x25F0, symBinAddr: 0x1000061CC, symSize: 0x20 }
  - { offset: 0xAB33, size: 0x8, addend: 0x0, symName: __ZNSt3__14pairINS_15__tree_iteratorINS_12__value_typeIiNS_12basic_stringIcNS_11char_traitsIcEENS_9allocatorIcEEEEEEPNS_11__tree_nodeIS9_PvEElEEbEC2B8ne180100ISE_RbTnNS_9enable_ifIXclsr10_CheckArgsE17__enable_implicitIT_T0_EEEiE4typeELi0EEEOSJ_OSK_, symObjAddr: 0x2610, symBinAddr: 0x1000061EC, symSize: 0x38 }
  - { offset: 0xAB91, size: 0x8, addend: 0x0, symName: __ZNSt3__15tupleIJOiEEC1B8ne180100IJiETnNS_9enable_ifIXsr4_AndINS_17integral_constantIbXeqsZT_sZT_EEENS2_17_EnableUTypesCtorIJDpT_EEEEE5valueEiE4typeELi0EEEDpOS8_, symObjAddr: 0x2648, symBinAddr: 0x100006224, symSize: 0x34 }
  - { offset: 0xABDB, size: 0x8, addend: 0x0, symName: __ZNSt3__15tupleIJOiEEC2B8ne180100IJiETnNS_9enable_ifIXsr4_AndINS_17integral_constantIbXeqsZT_sZT_EEENS2_17_EnableUTypesCtorIJDpT_EEEEE5valueEiE4typeELi0EEEDpOS8_, symObjAddr: 0x267C, symBinAddr: 0x100006258, symSize: 0x34 }
  - { offset: 0xAC25, size: 0x8, addend: 0x0, symName: __ZNSt3__112__tuple_implINS_15__tuple_indicesIJLm0EEEEJOiEEC1B8ne180100IJLm0EEJS3_ETpTnmJEJEJiEEENS1_IJXspT_EEEENS_13__tuple_typesIJDpT0_EEENS1_IJXspT1_EEEENS7_IJDpT2_EEEDpOT3_, symObjAddr: 0x26B0, symBinAddr: 0x10000628C, symSize: 0x34 }
  - { offset: 0xACBA, size: 0x8, addend: 0x0, symName: __ZNSt3__112__tuple_implINS_15__tuple_indicesIJLm0EEEEJOiEEC2B8ne180100IJLm0EEJS3_ETpTnmJEJEJiEEENS1_IJXspT_EEEENS_13__tuple_typesIJDpT0_EEENS1_IJXspT1_EEEENS7_IJDpT2_EEEDpOT3_, symObjAddr: 0x26E4, symBinAddr: 0x1000062C0, symSize: 0x34 }
  - { offset: 0xAD4F, size: 0x8, addend: 0x0, symName: __ZNSt3__112__tuple_leafILm0EOiLb0EEC2B8ne180100IivEEOT_, symObjAddr: 0x2718, symBinAddr: 0x1000062F4, symSize: 0x20 }
  - { offset: 0xAD92, size: 0x8, addend: 0x0, symName: __ZNSt3__114pointer_traitsIPNS_12__value_typeIiNS_12basic_stringIcNS_11char_traitsIcEENS_9allocatorIcEEEEEEE10pointer_toB8ne180100ERS8_, symObjAddr: 0x2738, symBinAddr: 0x100006314, symSize: 0x14 }
  - { offset: 0xADB5, size: 0x8, addend: 0x0, symName: __ZNKSt3__115__tree_iteratorINS_12__value_typeIiNS_12basic_stringIcNS_11char_traitsIcEENS_9allocatorIcEEEEEEPNS_11__tree_nodeIS8_PvEElE8__get_npB8ne180100Ev, symObjAddr: 0x274C, symBinAddr: 0x100006328, symSize: 0x18 }
  - { offset: 0xADDB, size: 0x8, addend: 0x0, symName: __ZNSt3__13mapIiNS_12basic_stringIcNS_11char_traitsIcEENS_9allocatorIcEEEENS_4lessIiEENS4_INS_4pairIKiS6_EEEEED2B8ne180100Ev, symObjAddr: 0x279C, symBinAddr: 0x100006378, symSize: 0x2C }
  - { offset: 0xAE05, size: 0x8, addend: 0x0, symName: __ZNSt3__16__treeINS_12__value_typeIiNS_12basic_stringIcNS_11char_traitsIcEENS_9allocatorIcEEEEEENS_19__map_value_compareIiS8_NS_4lessIiEELb1EEENS5_IS8_EEED1Ev, symObjAddr: 0x27C8, symBinAddr: 0x1000063A4, symSize: 0x2C }
  - { offset: 0xAE31, size: 0x8, addend: 0x0, symName: __ZNSt3__16__treeINS_12__value_typeIiNS_12basic_stringIcNS_11char_traitsIcEENS_9allocatorIcEEEEEENS_19__map_value_compareIiS8_NS_4lessIiEELb1EEENS5_IS8_EEED2Ev, symObjAddr: 0x27F4, symBinAddr: 0x1000063D0, symSize: 0x38 }
  - { offset: 0xAE5D, size: 0x8, addend: 0x0, symName: __ZNSt3__16__treeINS_12__value_typeIiNS_12basic_stringIcNS_11char_traitsIcEENS_9allocatorIcEEEEEENS_19__map_value_compareIiS8_NS_4lessIiEELb1EEENS5_IS8_EEE7destroyEPNS_11__tree_nodeIS8_PvEE, symObjAddr: 0x282C, symBinAddr: 0x100006408, symSize: 0xA4 }
  - { offset: 0xAEAE, size: 0x8, addend: 0x0, symName: __ZNSt3__112basic_stringIcNS_11char_traitsIcEENS_9allocatorIcEEEC1B8ne180100ILi0EEEPKc, symObjAddr: 0x28D0, symBinAddr: 0x1000064AC, symSize: 0x34 }
  - { offset: 0xAEED, size: 0x8, addend: 0x0, symName: __ZNKSt3__112basic_stringIcNS_11char_traitsIcEENS_9allocatorIcEEE6lengthB8ne180100Ev, symObjAddr: 0x2904, symBinAddr: 0x1000064E0, symSize: 0x24 }
  - { offset: 0xAF13, size: 0x8, addend: 0x0, symName: __ZNSt3__112basic_stringIcNS_11char_traitsIcEENS_9allocatorIcEEEixB8ne180100Em, symObjAddr: 0x2928, symBinAddr: 0x100006504, symSize: 0x48 }
  - { offset: 0xAF48, size: 0x8, addend: 0x0, symName: __ZNSt3__112basic_stringIcNS_11char_traitsIcEENS_9allocatorIcEEE6appendB8ne180100ERKS5_, symObjAddr: 0x29B4, symBinAddr: 0x100006590, symSize: 0x4C }
  - { offset: 0xAF7D, size: 0x8, addend: 0x0, symName: __ZNSt3__13mapIiNS_12basic_stringIcNS_11char_traitsIcEENS_9allocatorIcEEEENS_4lessIiEENS4_INS_4pairIKiS6_EEEEEixERSA_, symObjAddr: 0x2A00, symBinAddr: 0x1000065DC, symSize: 0x80 }
  - { offset: 0xAFB4, size: 0x8, addend: 0x0, symName: __ZNSt3__112basic_stringIcNS_11char_traitsIcEENS_9allocatorIcEEEC1B8ne180100EOS5_, symObjAddr: 0x2A80, symBinAddr: 0x10000665C, symSize: 0x34 }
  - { offset: 0xAFED, size: 0x8, addend: 0x0, symName: __ZNSt3__112basic_stringIcNS_11char_traitsIcEENS_9allocatorIcEEEC2B8ne180100ILi0EEEPKc, symObjAddr: 0x2AB4, symBinAddr: 0x100006690, symSize: 0x58 }
  - { offset: 0xB02C, size: 0x8, addend: 0x0, symName: __ZNSt3__117__compressed_pairINS_12basic_stringIcNS_11char_traitsIcEENS_9allocatorIcEEE5__repES5_EC1B8ne180100INS_18__default_init_tagESA_EEOT_OT0_, symObjAddr: 0x2B0C, symBinAddr: 0x1000066E8, symSize: 0x3C }
  - { offset: 0xB084, size: 0x8, addend: 0x0, symName: __ZNSt3__111char_traitsIcE6lengthB8ne180100EPKc, symObjAddr: 0x2B48, symBinAddr: 0x100006724, symSize: 0x34 }
  - { offset: 0xB0A7, size: 0x8, addend: 0x0, symName: __ZNSt3__117__compressed_pairINS_12basic_stringIcNS_11char_traitsIcEENS_9allocatorIcEEE5__repES5_EC2B8ne180100INS_18__default_init_tagESA_EEOT_OT0_, symObjAddr: 0x2B7C, symBinAddr: 0x100006758, symSize: 0x3C }
  - { offset: 0xB0FF, size: 0x8, addend: 0x0, symName: __ZNSt3__122__compressed_pair_elemINS_12basic_stringIcNS_11char_traitsIcEENS_9allocatorIcEEE5__repELi0ELb0EEC2B8ne180100ENS_18__default_init_tagE, symObjAddr: 0x2BB8, symBinAddr: 0x100006794, symSize: 0x14 }
  - { offset: 0xB134, size: 0x8, addend: 0x0, symName: __ZNKSt3__112basic_stringIcNS_11char_traitsIcEENS_9allocatorIcEEE4sizeB8ne180100Ev, symObjAddr: 0x2BF0, symBinAddr: 0x1000067CC, symSize: 0x54 }
  - { offset: 0xB15A, size: 0x8, addend: 0x0, symName: __ZNKSt3__112basic_stringIcNS_11char_traitsIcEENS_9allocatorIcEEE9__is_longB8ne180100Ev, symObjAddr: 0x2C44, symBinAddr: 0x100006820, symSize: 0x34 }
  - { offset: 0xB180, size: 0x8, addend: 0x0, symName: __ZNKSt3__112basic_stringIcNS_11char_traitsIcEENS_9allocatorIcEEE15__get_long_sizeB8ne180100Ev, symObjAddr: 0x2C78, symBinAddr: 0x100006854, symSize: 0x28 }
  - { offset: 0xB1A6, size: 0x8, addend: 0x0, symName: __ZNKSt3__112basic_stringIcNS_11char_traitsIcEENS_9allocatorIcEEE16__get_short_sizeB8ne180100Ev, symObjAddr: 0x2CA0, symBinAddr: 0x10000687C, symSize: 0x34 }
  - { offset: 0xB1CC, size: 0x8, addend: 0x0, symName: __ZNKSt3__117__compressed_pairINS_12basic_stringIcNS_11char_traitsIcEENS_9allocatorIcEEE5__repES5_E5firstB8ne180100Ev, symObjAddr: 0x2CD4, symBinAddr: 0x1000068B0, symSize: 0x24 }
  - { offset: 0xB1F2, size: 0x8, addend: 0x0, symName: __ZNKSt3__122__compressed_pair_elemINS_12basic_stringIcNS_11char_traitsIcEENS_9allocatorIcEEE5__repELi0ELb0EE5__getB8ne180100Ev, symObjAddr: 0x2CF8, symBinAddr: 0x1000068D4, symSize: 0x14 }
  - { offset: 0xB218, size: 0x8, addend: 0x0, symName: __ZNSt3__112basic_stringIcNS_11char_traitsIcEENS_9allocatorIcEEE13__fits_in_ssoB8ne180100Em, symObjAddr: 0x2D0C, symBinAddr: 0x1000068E8, symSize: 0x1C }
  - { offset: 0xB23C, size: 0x8, addend: 0x0, symName: __ZNSt3__112basic_stringIcNS_11char_traitsIcEENS_9allocatorIcEEE18__get_long_pointerB8ne180100Ev, symObjAddr: 0x2D28, symBinAddr: 0x100006904, symSize: 0x28 }
  - { offset: 0xB262, size: 0x8, addend: 0x0, symName: __ZNSt3__112basic_stringIcNS_11char_traitsIcEENS_9allocatorIcEEE13__get_pointerB8ne180100Ev, symObjAddr: 0x2D50, symBinAddr: 0x10000692C, symSize: 0x54 }
  - { offset: 0xB288, size: 0x8, addend: 0x0, symName: __ZNSt3__117__compressed_pairINS_12basic_stringIcNS_11char_traitsIcEENS_9allocatorIcEEE5__repES5_E5firstB8ne180100Ev, symObjAddr: 0x2DA4, symBinAddr: 0x100006980, symSize: 0x24 }
  - { offset: 0xB2AE, size: 0x8, addend: 0x0, symName: __ZNSt3__122__compressed_pair_elemINS_12basic_stringIcNS_11char_traitsIcEENS_9allocatorIcEEE5__repELi0ELb0EE5__getB8ne180100Ev, symObjAddr: 0x2DC8, symBinAddr: 0x1000069A4, symSize: 0x14 }
  - { offset: 0xB2D4, size: 0x8, addend: 0x0, symName: __ZNSt3__112basic_stringIcNS_11char_traitsIcEENS_9allocatorIcEEE19__get_short_pointerB8ne180100Ev, symObjAddr: 0x2DDC, symBinAddr: 0x1000069B8, symSize: 0x28 }
  - { offset: 0xB2FA, size: 0x8, addend: 0x0, symName: __ZNSt3__114pointer_traitsIPcE10pointer_toB8ne180100ERc, symObjAddr: 0x2E04, symBinAddr: 0x1000069E0, symSize: 0x14 }
  - { offset: 0xB31D, size: 0x8, addend: 0x0, symName: __ZNKSt3__112basic_stringIcNS_11char_traitsIcEENS_9allocatorIcEEE4dataB8ne180100Ev, symObjAddr: 0x2E44, symBinAddr: 0x100006A20, symSize: 0x28 }
  - { offset: 0xB343, size: 0x8, addend: 0x0, symName: __ZNKSt3__112basic_stringIcNS_11char_traitsIcEENS_9allocatorIcEEE13__get_pointerB8ne180100Ev, symObjAddr: 0x2E80, symBinAddr: 0x100006A5C, symSize: 0x54 }
  - { offset: 0xB369, size: 0x8, addend: 0x0, symName: __ZNKSt3__112basic_stringIcNS_11char_traitsIcEENS_9allocatorIcEEE18__get_long_pointerB8ne180100Ev, symObjAddr: 0x2ED4, symBinAddr: 0x100006AB0, symSize: 0x28 }
  - { offset: 0xB38F, size: 0x8, addend: 0x0, symName: __ZNKSt3__112basic_stringIcNS_11char_traitsIcEENS_9allocatorIcEEE19__get_short_pointerB8ne180100Ev, symObjAddr: 0x2EFC, symBinAddr: 0x100006AD8, symSize: 0x28 }
  - { offset: 0xB3B5, size: 0x8, addend: 0x0, symName: __ZNSt3__114pointer_traitsIPKcE10pointer_toB8ne180100ERS1_, symObjAddr: 0x2F24, symBinAddr: 0x100006B00, symSize: 0x14 }
  - { offset: 0xB3D8, size: 0x8, addend: 0x0, symName: __ZNSt3__16__treeINS_12__value_typeIiNS_12basic_stringIcNS_11char_traitsIcEENS_9allocatorIcEEEEEENS_19__map_value_compareIiS8_NS_4lessIiEELb1EEENS5_IS8_EEE25__emplace_unique_key_argsIiJRKNS_21piecewise_construct_tENS_5tupleIJRKiEEENSJ_IJEEEEEENS_4pairINS_15__tree_iteratorIS8_PNS_11__tree_nodeIS8_PvEElEEbEERKT_DpOT0_, symObjAddr: 0x2F38, symBinAddr: 0x100006B14, symSize: 0xF8 }
  - { offset: 0xB4AC, size: 0x8, addend: 0x0, symName: __ZNSt3__16__treeINS_12__value_typeIiNS_12basic_stringIcNS_11char_traitsIcEENS_9allocatorIcEEEEEENS_19__map_value_compareIiS8_NS_4lessIiEELb1EEENS5_IS8_EEE16__construct_nodeIJRKNS_21piecewise_construct_tENS_5tupleIJRKiEEENSJ_IJEEEEEENS_10unique_ptrINS_11__tree_nodeIS8_PvEENS_22__tree_node_destructorINS5_ISR_EEEEEEDpOT_, symObjAddr: 0x305C, symBinAddr: 0x100006C38, symSize: 0x120 }
  - { offset: 0xB533, size: 0x8, addend: 0x0, symName: __ZNSt3__116allocator_traitsINS_9allocatorINS_11__tree_nodeINS_12__value_typeIiNS_12basic_stringIcNS_11char_traitsIcEENS1_IcEEEEEEPvEEEEE9constructB8ne180100INS_4pairIKiS8_EEJRKNS_21piecewise_construct_tENS_5tupleIJRSG_EEENSL_IJEEEEvEEvRSC_PT_DpOT0_, symObjAddr: 0x317C, symBinAddr: 0x100006D58, symSize: 0x44 }
  - { offset: 0xB5B2, size: 0x8, addend: 0x0, symName: __ZNSt3__19allocatorINS_11__tree_nodeINS_12__value_typeIiNS_12basic_stringIcNS_11char_traitsIcEENS0_IcEEEEEEPvEEE9constructB8ne180100INS_4pairIKiS7_EEJRKNS_21piecewise_construct_tENS_5tupleIJRSE_EEENSJ_IJEEEEEEvPT_DpOT0_, symObjAddr: 0x31C0, symBinAddr: 0x100006D9C, symSize: 0x44 }
  - { offset: 0xB62E, size: 0x8, addend: 0x0, symName: __ZNSt3__14pairIKiNS_12basic_stringIcNS_11char_traitsIcEENS_9allocatorIcEEEEEC1B8ne180100IJRS1_EJEEENS_21piecewise_construct_tENS_5tupleIJDpT_EEENSC_IJDpT0_EEE, symObjAddr: 0x3204, symBinAddr: 0x100006DE0, symSize: 0x44 }
  - { offset: 0xB695, size: 0x8, addend: 0x0, symName: __ZNSt3__14pairIKiNS_12basic_stringIcNS_11char_traitsIcEENS_9allocatorIcEEEEEC1B8ne180100IJRS1_EJEJLm0EETpTnmJEEENS_21piecewise_construct_tERNS_5tupleIJDpT_EEERNSC_IJDpT0_EEENS_15__tuple_indicesIJXspT1_EEEENSL_IJXspT2_EEEE, symObjAddr: 0x3248, symBinAddr: 0x100006E24, symSize: 0x3C }
  - { offset: 0xB722, size: 0x8, addend: 0x0, symName: __ZNSt3__14pairIKiNS_12basic_stringIcNS_11char_traitsIcEENS_9allocatorIcEEEEEC2B8ne180100IJRS1_EJEJLm0EETpTnmJEEENS_21piecewise_construct_tERNS_5tupleIJDpT_EEERNSC_IJDpT0_EEENS_15__tuple_indicesIJXspT1_EEEENSL_IJXspT2_EEEE, symObjAddr: 0x3284, symBinAddr: 0x100006E60, symSize: 0x4C }
  - { offset: 0xB7AF, size: 0x8, addend: 0x0, symName: __ZNSt3__112__tuple_leafILm0ERKiLb0EE3getB8ne180100Ev, symObjAddr: 0x32F4, symBinAddr: 0x100006ED0, symSize: 0x18 }
  - { offset: 0xB7D5, size: 0x8, addend: 0x0, symName: __ZNSt3__15tupleIJRKiEEC1B8ne180100INS_4_AndETnNS_9enable_ifIXsrT_IJNS_17integral_constantIbLb1EEENS_21is_copy_constructibleIS2_EEEE5valueEiE4typeELi0EEES2_, symObjAddr: 0x330C, symBinAddr: 0x100006EE8, symSize: 0x34 }
  - { offset: 0xB81D, size: 0x8, addend: 0x0, symName: __ZNSt3__15tupleIJRKiEEC2B8ne180100INS_4_AndETnNS_9enable_ifIXsrT_IJNS_17integral_constantIbLb1EEENS_21is_copy_constructibleIS2_EEEE5valueEiE4typeELi0EEES2_, symObjAddr: 0x3340, symBinAddr: 0x100006F1C, symSize: 0x34 }
  - { offset: 0xB865, size: 0x8, addend: 0x0, symName: __ZNSt3__112__tuple_implINS_15__tuple_indicesIJLm0EEEEJRKiEEC1B8ne180100IJLm0EEJS4_ETpTnmJEJEJS4_EEENS1_IJXspT_EEEENS_13__tuple_typesIJDpT0_EEENS1_IJXspT1_EEEENS8_IJDpT2_EEEDpOT3_, symObjAddr: 0x3374, symBinAddr: 0x100006F50, symSize: 0x34 }
  - { offset: 0xB8FA, size: 0x8, addend: 0x0, symName: __ZNSt3__112__tuple_implINS_15__tuple_indicesIJLm0EEEEJRKiEEC2B8ne180100IJLm0EEJS4_ETpTnmJEJEJS4_EEENS1_IJXspT_EEEENS_13__tuple_typesIJDpT0_EEENS1_IJXspT1_EEEENS8_IJDpT2_EEEDpOT3_, symObjAddr: 0x33A8, symBinAddr: 0x100006F84, symSize: 0x34 }
  - { offset: 0xB98F, size: 0x8, addend: 0x0, symName: __ZNSt3__112__tuple_leafILm0ERKiLb0EEC2B8ne180100IS2_vEEOT_, symObjAddr: 0x33DC, symBinAddr: 0x100006FB8, symSize: 0x20 }
  - { offset: 0xB9D2, size: 0x8, addend: 0x0, symName: __ZNSt3__112basic_stringIcNS_11char_traitsIcEENS_9allocatorIcEEEC2B8ne180100EOS5_, symObjAddr: 0x33FC, symBinAddr: 0x100006FD8, symSize: 0xB8 }
  - { offset: 0xBA3B, size: 0x8, addend: 0x0, symName: __ZZNSt3__112basic_stringIcNS_11char_traitsIcEENS_9allocatorIcEEEC1B8ne180100EOS5_ENKUlRS5_E_clES7_, symObjAddr: 0x34B4, symBinAddr: 0x100007090, symSize: 0x40 }
  - { offset: 0xBA74, size: 0x8, addend: 0x0, symName: __ZNKSt3__112basic_stringIcNS_11char_traitsIcEENS_9allocatorIcEEE17__annotate_deleteB8ne180100Ev, symObjAddr: 0x34F4, symBinAddr: 0x1000070D0, symSize: 0x10 }
  - { offset: 0xBA9A, size: 0x8, addend: 0x0, symName: __ZN8SolutionD2Ev, symObjAddr: 0x3504, symBinAddr: 0x1000070E0, symSize: 0x50 }
  - { offset: 0xBAE4, size: 0x8, addend: 0x0, symName: __ZNKSt3__113basic_ostreamIcNS_11char_traitsIcEEE6sentrycvbB8ne180100Ev, symObjAddr: 0x373C, symBinAddr: 0x100007318, symSize: 0x1C }
  - { offset: 0xBB0A, size: 0x8, addend: 0x0, symName: __ZNSt3__119ostreambuf_iteratorIcNS_11char_traitsIcEEEC1B8ne180100ERNS_13basic_ostreamIcS2_EE, symObjAddr: 0x396C, symBinAddr: 0x100007548, symSize: 0x34 }
  - { offset: 0xBB42, size: 0x8, addend: 0x0, symName: __ZNKSt3__18ios_base5flagsB8ne180100Ev, symObjAddr: 0x39A0, symBinAddr: 0x10000757C, symSize: 0x18 }
  - { offset: 0xBB6A, size: 0x8, addend: 0x0, symName: __ZNKSt3__19basic_iosIcNS_11char_traitsIcEEE4fillB8ne180100Ev, symObjAddr: 0x39B8, symBinAddr: 0x100007594, symSize: 0x64 }
  - { offset: 0xBB90, size: 0x8, addend: 0x0, symName: __ZNKSt3__119ostreambuf_iteratorIcNS_11char_traitsIcEEE6failedB8ne180100Ev, symObjAddr: 0x3A1C, symBinAddr: 0x1000075F8, symSize: 0x20 }
  - { offset: 0xBBB6, size: 0x8, addend: 0x0, symName: __ZNSt3__19basic_iosIcNS_11char_traitsIcEEE8setstateB8ne180100Ej, symObjAddr: 0x3A3C, symBinAddr: 0x100007618, symSize: 0x2C }
  - { offset: 0xBBEB, size: 0x8, addend: 0x0, symName: __ZNKSt3__18ios_base5widthB8ne180100Ev, symObjAddr: 0x3A68, symBinAddr: 0x100007644, symSize: 0x18 }
  - { offset: 0xBC13, size: 0x8, addend: 0x0, symName: __ZNSt3__115basic_streambufIcNS_11char_traitsIcEEE5sputnB8ne180100EPKcl, symObjAddr: 0x3A80, symBinAddr: 0x10000765C, symSize: 0x3C }
  - { offset: 0xBC55, size: 0x8, addend: 0x0, symName: __ZNSt3__112basic_stringIcNS_11char_traitsIcEENS_9allocatorIcEEEC1B8ne180100Emc, symObjAddr: 0x3ABC, symBinAddr: 0x100007698, symSize: 0x3C }
  - { offset: 0xBC9D, size: 0x8, addend: 0x0, symName: __ZNSt3__112basic_stringIcNS_11char_traitsIcEENS_9allocatorIcEEE4dataB8ne180100Ev, symObjAddr: 0x3AF8, symBinAddr: 0x1000076D4, symSize: 0x28 }
  - { offset: 0xBCC3, size: 0x8, addend: 0x0, symName: __ZNSt3__18ios_base5widthB8ne180100El, symObjAddr: 0x3B20, symBinAddr: 0x1000076FC, symSize: 0x2C }
  - { offset: 0xBD09, size: 0x8, addend: 0x0, symName: __ZNSt3__112basic_stringIcNS_11char_traitsIcEENS_9allocatorIcEEEC2B8ne180100Emc, symObjAddr: 0x3B4C, symBinAddr: 0x100007728, symSize: 0x4C }
  - { offset: 0xBD51, size: 0x8, addend: 0x0, symName: __ZNSt3__119ostreambuf_iteratorIcNS_11char_traitsIcEEEC2B8ne180100ERNS_13basic_ostreamIcS2_EE, symObjAddr: 0x3BAC, symBinAddr: 0x100007788, symSize: 0x54 }
  - { offset: 0xBD89, size: 0x8, addend: 0x0, symName: __ZNKSt3__19basic_iosIcNS_11char_traitsIcEEE5rdbufB8ne180100Ev, symObjAddr: 0x3C00, symBinAddr: 0x1000077DC, symSize: 0x24 }
  - { offset: 0xBDAF, size: 0x8, addend: 0x0, symName: __ZNKSt3__18ios_base5rdbufB8ne180100Ev, symObjAddr: 0x3C24, symBinAddr: 0x100007800, symSize: 0x18 }
  - { offset: 0xBDD5, size: 0x8, addend: 0x0, symName: __ZNSt3__111char_traitsIcE11eq_int_typeB8ne180100Eii, symObjAddr: 0x3C3C, symBinAddr: 0x100007818, symSize: 0x24 }
  - { offset: 0xBE08, size: 0x8, addend: 0x0, symName: __ZNSt3__111char_traitsIcE3eofB8ne180100Ev, symObjAddr: 0x3C60, symBinAddr: 0x10000783C, symSize: 0x8 }
  - { offset: 0xBE1C, size: 0x8, addend: 0x0, symName: __ZNKSt3__19basic_iosIcNS_11char_traitsIcEEE5widenB8ne180100Ec, symObjAddr: 0x3C68, symBinAddr: 0x100007844, symSize: 0x84 }
  - { offset: 0xBE93, size: 0x8, addend: 0x0, symName: __ZNKSt3__15ctypeIcE5widenB8ne180100Ec, symObjAddr: 0x3D18, symBinAddr: 0x1000078F4, symSize: 0x38 }
  - { offset: 0xBEC8, size: 0x8, addend: 0x0, symName: __ZNSt3__18ios_base8setstateB8ne180100Ej, symObjAddr: 0x3D50, symBinAddr: 0x10000792C, symSize: 0x34 }
...
